; Function Attrs: nounwind uwtable
define void @Abc_NodePrintLevel(ptr noundef captures(none) %0, ptr noundef %1) local_unnamed_addr #0 {
  %3 = alloca ptr, align 8
  %4 = getelementptr i8, ptr %1, i64 20
  %.val22 = load i32, ptr %4, align 4
  %5 = and i32 %.val22, 15
  %6 = add nsw i32 %5, -5
  %narrow.i = icmp ult i32 %6, -2
  br i1 %narrow.i, label %14, label %7

7:                                                ; preds = %2
  %.val18 = load ptr, ptr %1, align 8
  %8 = getelementptr i8, ptr %1, i64 32
  %.val19 = load ptr, ptr %8, align 8
  %9 = getelementptr i8, ptr %.val18, i64 32
  %.val18.val = load ptr, ptr %9, align 8
  %.val19.val = load i32, ptr %.val19, align 4
  %10 = getelementptr i8, ptr %.val18.val, i64 8
  %.val18.val.val = load ptr, ptr %10, align 8
  %11 = sext i32 %.val19.val to i64
  %12 = getelementptr inbounds ptr, ptr %.val18.val.val, i64 %11
  %13 = load ptr, ptr %12, align 8
  %.phi.trans.insert = getelementptr i8, ptr %13, i64 20
  %.val23.pre = load i32, ptr %.phi.trans.insert, align 4
  br label %14

14:                                               ; preds = %2, %7
  %.val23 = phi i32 [ %.val23.pre, %7 ], [ %.val22, %2 ]
  %15 = phi ptr [ %13, %7 ], [ %1, %2 ]
  store ptr %15, ptr %3, align 8
  %16 = getelementptr i8, ptr %15, i64 20
  %17 = and i32 %.val23, 15
  switch i32 %17, label %22 [
    i32 2, label %18
    i32 8, label %20
  ]

18:                                               ; preds = %14
  %19 = tail call i64 @fwrite(ptr nonnull @.str.94, i64 15, i64 1, ptr %0)
  br label %42

20:                                               ; preds = %14
  %21 = tail call i64 @fwrite(ptr nonnull @.str.95, i64 7, i64 1, ptr %0)
  br label %42

22:                                               ; preds = %14
  %23 = tail call i32 @Abc_NodeIsConst(ptr noundef nonnull %15) #19
  %.not16 = icmp eq i32 %23, 0
  br i1 %.not16, label %29, label %24

24:                                               ; preds = %22
  %.val21 = load i32, ptr %4, align 4
  %25 = lshr i32 %.val21, 10
  %26 = and i32 %25, 1
  %27 = xor i32 %26, 1
  %28 = tail call i32 (ptr, ptr, ...) @fprintf(ptr noundef %0, ptr noundef nonnull @.str.96, i32 noundef %27) #19
  br label %42

29:                                               ; preds = %22
  %30 = load i32, ptr %16, align 4
  %31 = lshr i32 %30, 12
  %32 = tail call i32 (ptr, ptr, ...) @fprintf(ptr noundef %0, ptr noundef nonnull @.str.97, i32 noundef %31) #19
  %33 = tail call i32 @Abc_NodeMffcSize(ptr noundef nonnull %15) #19
  %34 = tail call i32 (ptr, ptr, ...) @fprintf(ptr noundef %0, ptr noundef nonnull @.str.98, i32 noundef %33) #19
  %35 = load ptr, ptr %1, align 8
  %36 = call ptr @Abc_NtkDfsNodes(ptr noundef %35, ptr noundef nonnull %3, i32 noundef 1) #19
  %37 = getelementptr i8, ptr %36, i64 4
  %.val = load i32, ptr %37, align 4
  %38 = call i32 (ptr, ptr, ...) @fprintf(ptr noundef %0, ptr noundef nonnull @.str.99, i32 noundef %.val) #19
  %39 = getelementptr inbounds nuw i8, ptr %36, i64 8
  %40 = load ptr, ptr %39, align 8
  %.not.i = icmp eq ptr %40, null
  br i1 %.not.i, label %Vec_PtrFree.exit, label %41

41:                                               ; preds = %29
  call void @free(ptr noundef nonnull %40) #19
  br label %Vec_PtrFree.exit

Vec_PtrFree.exit:                                 ; preds = %29, %41
  call void @free(ptr noundef nonnull %36) #19
  %fputc = call i32 @fputc(i32 10, ptr %0)
  br label %42

42:                                               ; preds = %Vec_PtrFree.exit, %24, %20, %18
  ret void
}